; Function Attrs: nounwind uwtable
define ptr @Hop_ManBalance(ptr noundef %0, i32 noundef %1) local_unnamed_addr #0 {
  %3 = tail call ptr (...) @Hop_ManStart() #9
  %4 = getelementptr inbounds nuw i8, ptr %3, i64 132
  store i32 0, ptr %4, align 4, !tbaa !3
  tail call void @Hop_ManCleanData(ptr noundef %0) #9
  %5 = getelementptr i8, ptr %3, i64 24
  %.val = load ptr, ptr %5, align 8, !tbaa !14
  %6 = getelementptr i8, ptr %0, i64 24
  %.val27 = load ptr, ptr %6, align 8, !tbaa !14
  store ptr %.val, ptr %.val27, align 8, !tbaa !15
  %7 = load ptr, ptr %0, align 8, !tbaa !16
  %8 = getelementptr i8, ptr %7, i64 4
  %.val2834 = load i32, ptr %8, align 4, !tbaa !17
  %9 = icmp sgt i32 %.val2834, 0
  br i1 %9, label %.lr.ph, label %.critedge

.lr.ph:                                           ; preds = %2, %.lr.ph
  %indvars.iv = phi i64 [ %indvars.iv.next, %.lr.ph ], [ 0, %2 ]
  %10 = phi ptr [ %15, %.lr.ph ], [ %7, %2 ]
  %11 = getelementptr i8, ptr %10, i64 8
  %.val30 = load ptr, ptr %11, align 8, !tbaa !19
  %12 = getelementptr inbounds nuw ptr, ptr %.val30, i64 %indvars.iv
  %13 = load ptr, ptr %12, align 8, !tbaa !20
  %14 = tail call ptr @Hop_ObjCreatePi(ptr noundef %3) #9
  store ptr %14, ptr %13, align 8, !tbaa !15
  %indvars.iv.next = add nuw nsw i64 %indvars.iv, 1
  %15 = load ptr, ptr %0, align 8, !tbaa !16
  %16 = getelementptr i8, ptr %15, i64 4
  %.val28 = load i32, ptr %16, align 4, !tbaa !17
  %17 = sext i32 %.val28 to i64
  %18 = icmp slt i64 %indvars.iv.next, %17
  br i1 %18, label %.lr.ph, label %.critedge, !llvm.loop !21

.critedge:                                        ; preds = %.lr.ph, %2
  %19 = tail call noalias dereferenceable_or_null(16) ptr @malloc(i64 noundef 16) #10
  %20 = getelementptr inbounds nuw i8, ptr %19, i64 4
  store i32 0, ptr %20, align 4, !tbaa !23
  store i32 50, ptr %19, align 8, !tbaa !25
  %21 = tail call noalias dereferenceable_or_null(400) ptr @malloc(i64 noundef 400) #10
  %22 = getelementptr inbounds nuw i8, ptr %19, i64 8
  store ptr %21, ptr %22, align 8, !tbaa !26
  %23 = getelementptr inbounds nuw i8, ptr %0, i64 8
  %24 = load ptr, ptr %23, align 8, !tbaa !27
  %25 = getelementptr i8, ptr %24, i64 4
  %.val2936 = load i32, ptr %25, align 4, !tbaa !17
  %26 = icmp sgt i32 %.val2936, 0
  br i1 %26, label %.lr.ph38, label %.critedge.i

.lr.ph38:                                         ; preds = %.critedge, %.lr.ph38
  %indvars.iv40 = phi i64 [ %indvars.iv.next41, %.lr.ph38 ], [ 0, %.critedge ]
  %27 = phi ptr [ %42, %.lr.ph38 ], [ %24, %.critedge ]
  %28 = getelementptr i8, ptr %27, i64 8
  %.val31 = load ptr, ptr %28, align 8, !tbaa !19
  %29 = getelementptr inbounds nuw ptr, ptr %.val31, i64 %indvars.iv40
  %30 = load ptr, ptr %29, align 8, !tbaa !20
  %31 = getelementptr i8, ptr %30, i64 16
  %.val32 = load ptr, ptr %31, align 8, !tbaa !28
  %32 = ptrtoint ptr %.val32 to i64
  %33 = and i64 %32, -2
  %34 = inttoptr i64 %33 to ptr
  %35 = tail call fastcc ptr @Hop_NodeBalance_rec(ptr noundef %3, ptr noundef %34, ptr noundef nonnull %19, i32 noundef 0, i32 noundef %1)
  %.val33 = load ptr, ptr %31, align 8, !tbaa !28
  %36 = ptrtoint ptr %.val33 to i64
  %37 = and i64 %36, 1
  %38 = ptrtoint ptr %35 to i64
  %39 = xor i64 %37, %38
  %40 = inttoptr i64 %39 to ptr
  %41 = tail call ptr @Hop_ObjCreatePo(ptr noundef %3, ptr noundef %40) #9
  %indvars.iv.next41 = add nuw nsw i64 %indvars.iv40, 1
  %42 = load ptr, ptr %23, align 8, !tbaa !27
  %43 = getelementptr i8, ptr %42, i64 4
  %.val29 = load i32, ptr %43, align 4, !tbaa !17
  %44 = sext i32 %.val29 to i64
  %45 = icmp slt i64 %indvars.iv.next41, %44
  br i1 %45, label %.lr.ph38, label %.critedge2, !llvm.loop !29

.critedge2:                                       ; preds = %.lr.ph38
  %.val11.i.pre = load i32, ptr %20, align 4, !tbaa !23
  %.pre.pre = load ptr, ptr %22, align 8, !tbaa !19
  %46 = icmp sgt i32 %.val11.i.pre, 0
  br i1 %46, label %.lr.ph.i.preheader, label %.critedge.i

.lr.ph.i.preheader:                               ; preds = %.critedge2
  %47 = zext nneg i32 %.val11.i.pre to i64
  br label %.lr.ph.i

.lr.ph.i:                                         ; preds = %.lr.ph.i.preheader, %54
  %indvars.iv.i = phi i64 [ %indvars.iv.next.i, %54 ], [ 0, %.lr.ph.i.preheader ]
  %48 = getelementptr inbounds nuw ptr, ptr %.pre.pre, i64 %indvars.iv.i
  %49 = load ptr, ptr %48, align 8, !tbaa !20
  %.not.i = icmp eq ptr %49, null
  br i1 %.not.i, label %54, label %50

50:                                               ; preds = %.lr.ph.i
  %51 = getelementptr inbounds nuw i8, ptr %49, i64 8
  %52 = load ptr, ptr %51, align 8, !tbaa !19
  %.not.i.i = icmp eq ptr %52, null
  br i1 %.not.i.i, label %Vec_PtrFree.exit.i, label %53

53:                                               ; preds = %50
  tail call void @free(ptr noundef nonnull %52) #9
  br label %Vec_PtrFree.exit.i

Vec_PtrFree.exit.i:                               ; preds = %53, %50
  tail call void @free(ptr noundef nonnull %49) #9
  br label %54

54:                                               ; preds = %Vec_PtrFree.exit.i, %.lr.ph.i
  %indvars.iv.next.i = add nuw nsw i64 %indvars.iv.i, 1
  %exitcond.not = icmp eq i64 %indvars.iv.next.i, %47
  br i1 %exitcond.not, label %.critedge.i.thread, label %.lr.ph.i, !llvm.loop !30

.critedge.i:                                      ; preds = %.critedge, %.critedge2
  %.pre47 = phi ptr [ %.pre.pre, %.critedge2 ], [ %21, %.critedge ]
  %.not.i9.i = icmp eq ptr %.pre47, null
  br i1 %.not.i9.i, label %Vec_VecFree.exit, label %.critedge.i.thread

.critedge.i.thread:                               ; preds = %54, %.critedge.i
  %.pre4750 = phi ptr [ %.pre47, %.critedge.i ], [ %.pre.pre, %54 ]
  tail call void @free(ptr noundef nonnull %.pre4750) #9
  br label %Vec_VecFree.exit

Vec_VecFree.exit:                                 ; preds = %.critedge.i, %.critedge.i.thread
  tail call void @free(ptr noundef nonnull %19) #9
  %55 = tail call i32 @Hop_ManCheck(ptr noundef %3) #9
  %.not = icmp eq i32 %55, 0
  br i1 %.not, label %56, label %57

56:                                               ; preds = %Vec_VecFree.exit
  %puts = tail call i32 @puts(ptr nonnull dereferenceable(1) @str)
  br label %57

57:                                               ; preds = %56, %Vec_VecFree.exit
  ret ptr %3
}